target datalayout = "e-m:e-p270:32:32-p271:32:32-p272:64:64-i64:64-i128:128-f80:128-n8:16:32:64-S128"
target triple = "x86_64-pc-linux-gnu"

%struct.H5L_trav_gv_t = type { i64, ptr }

@.str = private unnamed_addr constant [100 x i8] c"generated/home/dtcxzyw/WorkSpace/Projects/compilers/llvm-opt-benchmark/bench/hdf5/hdf5/src/H5Lint.c\00", align 1
@H5E_LINK_g = external global i64, align 8
@H5E_NOTFOUND_g = external global i64, align 8
@H5E_CANTGET_g = external global i64, align 8
@__func__.H5L__get_val_cb = private unnamed_addr constant [16 x i8] c"H5L__get_val_cb\00", align 1
@.str.47 = private unnamed_addr constant [19 x i8] c"'%s' doesn't exist\00", align 1
@.str.48 = private unnamed_addr constant [26 x i8] c"can't retrieve link value\00", align 1

; Function Attrs: nounwind uwtable
define internal i32 @H5L__get_val_cb(ptr noundef %0, ptr noundef %1, ptr noundef %2, ptr noundef %3, ptr noundef %4, ptr noundef %5) #0 {
  %7 = alloca ptr, align 8
  %8 = alloca ptr, align 8
  %9 = alloca ptr, align 8
  %10 = alloca ptr, align 8
  %11 = alloca ptr, align 8
  %12 = alloca ptr, align 8
  %13 = alloca ptr, align 8
  %14 = alloca i32, align 4
  %15 = alloca i8, align 1
  store ptr %0, ptr %7, align 8
  store ptr %1, ptr %8, align 8
  store ptr %2, ptr %9, align 8
  store ptr %3, ptr %10, align 8
  store ptr %4, ptr %11, align 8
  store ptr %5, ptr %12, align 8
  %16 = load ptr, ptr %11, align 8
  store ptr %16, ptr %13, align 8
  store i32 0, ptr %14, align 4
  store i8 0, ptr %15, align 1
  %17 = load ptr, ptr %9, align 8
  %18 = icmp eq ptr %17, null
  br i1 %18, label %19, label %35

19:                                               ; preds = %6
  br label %20

20:                                               ; preds = %19
  br label %21

21:                                               ; preds = %20
  br label %22

22:                                               ; preds = %21
  %23 = load i64, ptr @H5E_LINK_g, align 8
  %24 = load i64, ptr @H5E_NOTFOUND_g, align 8
  %25 = load ptr, ptr %8, align 8
  %26 = call i32 (ptr, ptr, i32, i64, i64, ptr, ...) @H5E_printf_stack(ptr noundef @.str, ptr noundef @__func__.H5L__get_val_cb, i32 noundef 980, i64 noundef %23, i64 noundef %24, ptr noundef @.str.47, ptr noundef %25)
  br label %27

27:                                               ; preds = %22
  store i8 1, ptr %15, align 1
  %28 = load i8, ptr %15, align 1
  %29 = trunc i8 %28 to i1
  %30 = zext i1 %29 to i8
  store i8 %30, ptr %15, align 1
  br label %31

31:                                               ; preds = %27
  br label %32

32:                                               ; preds = %31
  store i32 -1, ptr %14, align 4
  br label %61

33:                                               ; No predecessors!
  br label %34

34:                                               ; preds = %33
  br label %35

35:                                               ; preds = %34, %6
  %36 = load ptr, ptr %9, align 8
  %37 = load ptr, ptr %13, align 8
  %38 = getelementptr inbounds %struct.H5L_trav_gv_t, ptr %37, i32 0, i32 1
  %39 = load ptr, ptr %38, align 8
  %40 = load ptr, ptr %13, align 8
  %41 = getelementptr inbounds %struct.H5L_trav_gv_t, ptr %40, i32 0, i32 0
  %42 = load i64, ptr %41, align 8
  %43 = call i32 @H5L__get_val_real(ptr noundef %36, ptr noundef %39, i64 noundef %42)
  %44 = icmp slt i32 %43, 0
  br i1 %44, label %45, label %60

45:                                               ; preds = %35
  br label %46

46:                                               ; preds = %45
  br label %47

47:                                               ; preds = %46
  br label %48

48:                                               ; preds = %47
  %49 = load i64, ptr @H5E_LINK_g, align 8
  %50 = load i64, ptr @H5E_CANTGET_g, align 8
  %51 = call i32 (ptr, ptr, i32, i64, i64, ptr, ...) @H5E_printf_stack(ptr noundef @.str, ptr noundef @__func__.H5L__get_val_cb, i32 noundef 984, i64 noundef %49, i64 noundef %50, ptr noundef @.str.48)
  br label %52

52:                                               ; preds = %48
  store i8 1, ptr %15, align 1
  %53 = load i8, ptr %15, align 1
  %54 = trunc i8 %53 to i1
  %55 = zext i1 %54 to i8
  store i8 %55, ptr %15, align 1
  br label %56

56:                                               ; preds = %52
  br label %57

57:                                               ; preds = %56
  store i32 -1, ptr %14, align 4
  br label %61

58:                                               ; No predecessors!
  br label %59

59:                                               ; preds = %58
  br label %60

60:                                               ; preds = %59, %35
  br label %61

61:                                               ; preds = %60, %57, %32
  %62 = load ptr, ptr %12, align 8
  store i32 0, ptr %62, align 4
  %63 = load i32, ptr %14, align 4
  ret i32 %63
}