; Function Attrs: nounwind uwtable
define internal range(i32 -1, 1) i32 @H5L__get_val_cb(ptr nocapture readnone %0, ptr noundef %1, ptr noundef readonly %2, ptr nocapture readnone %3, ptr nocapture noundef readonly %4, ptr nocapture noundef writeonly %5) #0 {
  %7 = icmp eq ptr %2, null
  br i1 %7, label %8, label %12

8:                                                ; preds = %6
  %9 = load i64, ptr @H5E_LINK_g, align 8
  %10 = load i64, ptr @H5E_NOTFOUND_g, align 8
  %11 = tail call i32 (ptr, ptr, i32, i64, i64, ptr, ...) @H5E_printf_stack(ptr noundef nonnull @.str, ptr noundef nonnull @__func__.H5L__get_val_cb, i32 noundef 980, i64 noundef %9, i64 noundef %10, ptr noundef nonnull @.str.47, ptr noundef %1) #10
  br label %22

12:                                               ; preds = %6
  %13 = getelementptr inbounds i8, ptr %4, i64 8
  %14 = load ptr, ptr %13, align 8
  %15 = load i64, ptr %4, align 8
  %16 = tail call fastcc i32 @H5L__get_val_real(ptr noundef nonnull %2, ptr noundef %14, i64 noundef %15)
  %17 = icmp slt i32 %16, 0
  br i1 %17, label %18, label %22

18:                                               ; preds = %12
  %19 = load i64, ptr @H5E_LINK_g, align 8
  %20 = load i64, ptr @H5E_CANTGET_g, align 8
  %21 = tail call i32 (ptr, ptr, i32, i64, i64, ptr, ...) @H5E_printf_stack(ptr noundef nonnull @.str, ptr noundef nonnull @__func__.H5L__get_val_cb, i32 noundef 984, i64 noundef %19, i64 noundef %20, ptr noundef nonnull @.str.48) #10
  br label %22

22:                                               ; preds = %12, %18, %8
  %.0 = phi i32 [ -1, %8 ], [ -1, %18 ], [ 0, %12 ]
  store i32 0, ptr %5, align 4
  ret i32 %.0
}